target datalayout = "e-m:e-p270:32:32-p271:32:32-p272:64:64-i64:64-i128:128-f80:128-n8:16:32:64-S128"
target triple = "x86_64-pc-linux-gnu"

%struct.ecpk_parameters_st = type { i32, %union.anon }
%union.anon = type { ptr }

@ECPARAMETERS_it.local_it = internal constant { i8, [7 x i8], i64, ptr, i64, ptr, i64, ptr } { i8 1, [7 x i8] zeroinitializer, i64 16, ptr @ECPARAMETERS_seq_tt, i64 6, ptr null, i64 48, ptr @.str }, align 8
@ECPKPARAMETERS_it.local_it = internal constant { i8, [7 x i8], i64, ptr, i64, ptr, i64, ptr } { i8 2, [7 x i8] zeroinitializer, i64 0, ptr @ECPKPARAMETERS_ch_tt, i64 3, ptr null, i64 16, ptr @.str.1 }, align 8
@.str.2 = private unnamed_addr constant [31 x i8] c"../openssl/crypto/ec/ec_asn1.c\00", align 1
@__func__.EC_GROUP_get_ecpkparameters = private unnamed_addr constant [28 x i8] c"EC_GROUP_get_ecpkparameters\00", align 1

; Function Attrs: nounwind uwtable
define ptr @ECPARAMETERS_it() #0 {
  ret ptr @ECPARAMETERS_it.local_it
}

; Function Attrs: nounwind uwtable
define ptr @ECPKPARAMETERS_it() #0 {
  ret ptr @ECPKPARAMETERS_it.local_it
}

; Function Attrs: nounwind uwtable
define void @ECPKPARAMETERS_free(ptr noundef %0) #0 {
  %2 = alloca ptr, align 8
  store ptr %0, ptr %2, align 8, !tbaa !18
  %3 = load ptr, ptr %2, align 8, !tbaa !18
  %4 = call ptr @ECPKPARAMETERS_it()
  call void @ASN1_item_free(ptr noundef %3, ptr noundef %4)
  ret void
}

; Function Attrs: nounwind uwtable
define void @ECPARAMETERS_free(ptr noundef %0) #0 {
  %2 = alloca ptr, align 8
  store ptr %0, ptr %2, align 8, !tbaa !10
  %3 = load ptr, ptr %2, align 8, !tbaa !10
  %4 = call ptr @ECPARAMETERS_it()
  call void @ASN1_item_free(ptr noundef %3, ptr noundef %4)
  ret void
}

; Function Attrs: nounwind uwtable
define ptr @ECPKPARAMETERS_new() #0 {
  %1 = call ptr @ECPKPARAMETERS_it()
  %2 = call ptr @ASN1_item_new(ptr noundef %1)
  ret ptr %2
}

; Function Attrs: nounwind uwtable
define ptr @EC_GROUP_get_ecpkparameters(ptr noundef %0, ptr noundef %1) #0 {
  %3 = alloca ptr, align 8
  %4 = alloca ptr, align 8
  %5 = alloca ptr, align 8
  %6 = alloca i32, align 4
  %7 = alloca i32, align 4
  %8 = alloca ptr, align 8
  %9 = alloca i32, align 4
  %10 = alloca ptr, align 8
  store ptr %0, ptr %4, align 8, !tbaa !24
  store ptr %1, ptr %5, align 8, !tbaa !18
  call void @llvm.lifetime.start.p0(i64 4, ptr %6) #4
  store i32 1, ptr %6, align 4, !tbaa !38
  call void @llvm.lifetime.start.p0(i64 4, ptr %7) #4
  call void @llvm.lifetime.start.p0(i64 8, ptr %8) #4
  %11 = load ptr, ptr %5, align 8, !tbaa !18
  store ptr %11, ptr %8, align 8, !tbaa !18
  %12 = load ptr, ptr %8, align 8, !tbaa !18
  %13 = icmp eq ptr %12, null
  br i1 %13, label %14, label %19

14:                                               ; preds = %2
  %15 = call ptr @ECPKPARAMETERS_new()
  store ptr %15, ptr %8, align 8, !tbaa !18
  %16 = icmp eq ptr %15, null
  br i1 %16, label %17, label %18

17:                                               ; preds = %14
  call void @ERR_new()
  call void @ERR_set_debug(ptr noundef @.str.2, i32 noundef 475, ptr noundef @__func__.EC_GROUP_get_ecpkparameters)
  call void (i32, i32, ptr, ...) @ERR_set_error(i32 noundef 16, i32 noundef 524301, ptr noundef null)
  store ptr null, ptr %3, align 8
  store i32 1, ptr %9, align 4
  br label %90

18:                                               ; preds = %14
  br label %44

19:                                               ; preds = %2
  %20 = load ptr, ptr %8, align 8, !tbaa !18
  %21 = getelementptr inbounds nuw %struct.ecpk_parameters_st, ptr %20, i32 0, i32 0
  %22 = load i32, ptr %21, align 8, !tbaa !68
  %23 = icmp eq i32 %22, 0
  br i1 %23, label %24, label %28

24:                                               ; preds = %19
  %25 = load ptr, ptr %8, align 8, !tbaa !18
  %26 = getelementptr inbounds nuw %struct.ecpk_parameters_st, ptr %25, i32 0, i32 1
  %27 = load ptr, ptr %26, align 8, !tbaa !49
  call void @ASN1_OBJECT_free(ptr noundef %27)
  br label %43

28:                                               ; preds = %19
  %29 = load ptr, ptr %8, align 8, !tbaa !18
  %30 = getelementptr inbounds nuw %struct.ecpk_parameters_st, ptr %29, i32 0, i32 0
  %31 = load i32, ptr %30, align 8, !tbaa !68
  %32 = icmp eq i32 %31, 1
  br i1 %32, label %33, label %42

33:                                               ; preds = %28
  %34 = load ptr, ptr %8, align 8, !tbaa !18
  %35 = getelementptr inbounds nuw %struct.ecpk_parameters_st, ptr %34, i32 0, i32 1
  %36 = load ptr, ptr %35, align 8, !tbaa !49
  %37 = icmp ne ptr %36, null
  br i1 %37, label %38, label %42

38:                                               ; preds = %33
  %39 = load ptr, ptr %8, align 8, !tbaa !18
  %40 = getelementptr inbounds nuw %struct.ecpk_parameters_st, ptr %39, i32 0, i32 1
  %41 = load ptr, ptr %40, align 8, !tbaa !49
  call void @ECPARAMETERS_free(ptr noundef %41)
  br label %42

42:                                               ; preds = %38, %33, %28
  br label %43

43:                                               ; preds = %42, %24
  br label %44

44:                                               ; preds = %43, %18
  %45 = load ptr, ptr %4, align 8, !tbaa !24
  %46 = call i32 @EC_GROUP_get_asn1_flag(ptr noundef %45)
  %47 = icmp eq i32 %46, 1
  br i1 %47, label %48, label %73

48:                                               ; preds = %44
  %49 = load ptr, ptr %4, align 8, !tbaa !24
  %50 = call i32 @EC_GROUP_get_curve_name(ptr noundef %49)
  store i32 %50, ptr %7, align 4, !tbaa !38
  %51 = load i32, ptr %7, align 4, !tbaa !38
  %52 = icmp ne i32 %51, 0
  br i1 %52, label %53, label %71

53:                                               ; preds = %48
  call void @llvm.lifetime.start.p0(i64 8, ptr %10) #4
  %54 = load i32, ptr %7, align 4, !tbaa !38
  %55 = call ptr @OBJ_nid2obj(i32 noundef %54)
  store ptr %55, ptr %10, align 8, !tbaa !70
  %56 = load ptr, ptr %10, align 8, !tbaa !70
  %57 = icmp eq ptr %56, null
  br i1 %57, label %62, label %58

58:                                               ; preds = %53
  %59 = load ptr, ptr %10, align 8, !tbaa !70
  %60 = call i64 @OBJ_length(ptr noundef %59)
  %61 = icmp eq i64 %60, 0
  br i1 %61, label %62, label %64

62:                                               ; preds = %58, %53
  %63 = load ptr, ptr %10, align 8, !tbaa !70
  call void @ASN1_OBJECT_free(ptr noundef %63)
  call void @ERR_new()
  call void @ERR_set_debug(ptr noundef @.str.2, i32 noundef 496, ptr noundef @__func__.EC_GROUP_get_ecpkparameters)
  call void (i32, i32, ptr, ...) @ERR_set_error(i32 noundef 16, i32 noundef 167, ptr noundef null)
  store i32 0, ptr %6, align 4, !tbaa !38
  br label %70

64:                                               ; preds = %58
  %65 = load ptr, ptr %8, align 8, !tbaa !18
  %66 = getelementptr inbounds nuw %struct.ecpk_parameters_st, ptr %65, i32 0, i32 0
  store i32 0, ptr %66, align 8, !tbaa !68
  %67 = load ptr, ptr %10, align 8, !tbaa !70
  %68 = load ptr, ptr %8, align 8, !tbaa !18
  %69 = getelementptr inbounds nuw %struct.ecpk_parameters_st, ptr %68, i32 0, i32 1
  store ptr %67, ptr %69, align 8, !tbaa !49
  br label %70

70:                                               ; preds = %64, %62
  call void @llvm.lifetime.end.p0(i64 8, ptr %10) #4
  br label %72

71:                                               ; preds = %48
  store i32 0, ptr %6, align 4, !tbaa !38
  br label %72

72:                                               ; preds = %71, %70
  br label %83

73:                                               ; preds = %44
  %74 = load ptr, ptr %8, align 8, !tbaa !18
  %75 = getelementptr inbounds nuw %struct.ecpk_parameters_st, ptr %74, i32 0, i32 0
  store i32 1, ptr %75, align 8, !tbaa !68
  %76 = load ptr, ptr %4, align 8, !tbaa !24
  %77 = call ptr @EC_GROUP_get_ecparameters(ptr noundef %76, ptr noundef null)
  %78 = load ptr, ptr %8, align 8, !tbaa !18
  %79 = getelementptr inbounds nuw %struct.ecpk_parameters_st, ptr %78, i32 0, i32 1
  store ptr %77, ptr %79, align 8, !tbaa !49
  %80 = icmp eq ptr %77, null
  br i1 %80, label %81, label %82

81:                                               ; preds = %73
  store i32 0, ptr %6, align 4, !tbaa !38
  br label %82

82:                                               ; preds = %81, %73
  br label %83

83:                                               ; preds = %82, %72
  %84 = load i32, ptr %6, align 4, !tbaa !38
  %85 = icmp ne i32 %84, 0
  br i1 %85, label %88, label %86

86:                                               ; preds = %83
  %87 = load ptr, ptr %8, align 8, !tbaa !18
  call void @ECPKPARAMETERS_free(ptr noundef %87)
  store ptr null, ptr %3, align 8
  store i32 1, ptr %9, align 4
  br label %90

88:                                               ; preds = %83
  %89 = load ptr, ptr %8, align 8, !tbaa !18
  store ptr %89, ptr %3, align 8
  store i32 1, ptr %9, align 4
  br label %90

90:                                               ; preds = %88, %86, %17
  call void @llvm.lifetime.end.p0(i64 8, ptr %8) #4
  call void @llvm.lifetime.end.p0(i64 4, ptr %7) #4
  call void @llvm.lifetime.end.p0(i64 4, ptr %6) #4
  %91 = load ptr, ptr %3, align 8
  ret ptr %91
}