; Function Attrs: nounwind uwtable
define ptr @EC_GROUP_get_ecpkparameters(ptr noundef %0, ptr noundef %1) local_unnamed_addr #0 {
  %3 = icmp eq ptr %1, null
  br i1 %3, label %4, label %8

4:                                                ; preds = %2
  %5 = tail call ptr @ASN1_item_new(ptr noundef nonnull @ECPKPARAMETERS_it.local_it) #8
  %6 = icmp eq ptr %5, null
  br i1 %6, label %7, label %17

7:                                                ; preds = %4
  tail call void @ERR_new() #8
  tail call void @ERR_set_debug(ptr noundef nonnull @.str.2, i32 noundef 475, ptr noundef nonnull @__func__.EC_GROUP_get_ecpkparameters) #8
  tail call void (i32, i32, ptr, ...) @ERR_set_error(i32 noundef 16, i32 noundef 524301, ptr noundef null) #8
  br label %34

8:                                                ; preds = %2
  %9 = load i32, ptr %1, align 8, !tbaa !44
  switch i32 %9, label %17 [
    i32 0, label %10
    i32 1, label %13
  ]

10:                                               ; preds = %8
  %11 = getelementptr inbounds nuw i8, ptr %1, i64 8
  %12 = load ptr, ptr %11, align 8, !tbaa !18
  tail call void @ASN1_OBJECT_free(ptr noundef %12) #8
  br label %17

13:                                               ; preds = %8
  %14 = getelementptr inbounds nuw i8, ptr %1, i64 8
  %15 = load ptr, ptr %14, align 8, !tbaa !18
  %.not = icmp eq ptr %15, null
  br i1 %.not, label %17, label %16

16:                                               ; preds = %13
  tail call void @ASN1_item_free(ptr noundef nonnull %15, ptr noundef nonnull @ECPARAMETERS_it.local_it) #8
  br label %17

17:                                               ; preds = %8, %10, %16, %13, %4
  %.023 = phi ptr [ %5, %4 ], [ %1, %10 ], [ %1, %16 ], [ %1, %13 ], [ %1, %8 ]
  %18 = tail call i32 @EC_GROUP_get_asn1_flag(ptr noundef %0) #8
  %19 = icmp eq i32 %18, 1
  br i1 %19, label %20, label %30

20:                                               ; preds = %17
  %21 = tail call i32 @EC_GROUP_get_curve_name(ptr noundef %0) #8
  %.not31 = icmp eq i32 %21, 0
  br i1 %.not31, label %.critedge, label %22

22:                                               ; preds = %20
  %23 = tail call ptr @OBJ_nid2obj(i32 noundef %21) #8
  %24 = icmp eq ptr %23, null
  br i1 %24, label %28, label %25

25:                                               ; preds = %22
  %26 = tail call i64 @OBJ_length(ptr noundef nonnull %23) #8
  %27 = icmp eq i64 %26, 0
  br i1 %27, label %28, label %.critedge34

28:                                               ; preds = %25, %22
  tail call void @ASN1_OBJECT_free(ptr noundef %23) #8
  tail call void @ERR_new() #8
  tail call void @ERR_set_debug(ptr noundef nonnull @.str.2, i32 noundef 496, ptr noundef nonnull @__func__.EC_GROUP_get_ecpkparameters) #8
  tail call void (i32, i32, ptr, ...) @ERR_set_error(i32 noundef 16, i32 noundef 167, ptr noundef null) #8
  br label %.critedge

.critedge34:                                      ; preds = %25
  store i32 0, ptr %.023, align 8, !tbaa !44
  %29 = getelementptr inbounds nuw i8, ptr %.023, i64 8
  store ptr %23, ptr %29, align 8, !tbaa !18
  br label %34

30:                                               ; preds = %17
  store i32 1, ptr %.023, align 8, !tbaa !44
  %31 = tail call ptr @EC_GROUP_get_ecparameters(ptr noundef %0, ptr noundef null)
  %32 = getelementptr inbounds nuw i8, ptr %.023, i64 8
  store ptr %31, ptr %32, align 8, !tbaa !18
  %33 = icmp eq ptr %31, null
  br i1 %33, label %.critedge, label %34

.critedge:                                        ; preds = %28, %20, %30
  tail call void @ASN1_item_free(ptr noundef nonnull %.023, ptr noundef nonnull @ECPKPARAMETERS_it.local_it) #8
  br label %34

34:                                               ; preds = %30, %.critedge34, %.critedge, %7
  %.0 = phi ptr [ null, %7 ], [ null, %.critedge ], [ %.023, %.critedge34 ], [ %.023, %30 ]
  ret ptr %.0
}